target datalayout = "e-m:e-p270:32:32-p271:32:32-p272:64:64-i64:64-i128:128-f80:128-n8:16:32:64-S128"
target triple = "x86_64-pc-linux-gnu"

%"class.std::__cxx11::basic_string" = type { %"struct.std::__cxx11::basic_string<char>::_Alloc_hider", i64, %union.anon }
%"struct.std::__cxx11::basic_string<char>::_Alloc_hider" = type { ptr }
%union.anon = type { i64, [8 x i8] }
%"class.std::allocator" = type { i8 }

@__dso_handle = external hidden global i8
@_ZZN7rocksdb27BlockCacheEntryStatsMapKeys10EntryCountB5cxx11ENS_14CacheEntryRoleEE7kPrefixB5cxx11 = internal global %"class.std::__cxx11::basic_string" zeroinitializer, align 8
@_ZGVZN7rocksdb27BlockCacheEntryStatsMapKeys10EntryCountB5cxx11ENS_14CacheEntryRoleEE7kPrefixB5cxx11 = internal global i64 0, align 8
@.str.33 = private unnamed_addr constant [7 x i8] c"count.\00", align 1

; Function Attrs: mustprogress nounwind uwtable
define linkonce_odr void @_ZNSt15__new_allocatorIcEC2Ev(ptr noundef nonnull align 1 dereferenceable(1) %0) unnamed_addr #2 comdat align 2 {
  %2 = alloca ptr, align 8
  store ptr %0, ptr %2, align 8, !tbaa !27
  ret void
}

; Function Attrs: mustprogress nounwind uwtable
define linkonce_odr void @_ZNSt15__new_allocatorIcED2Ev(ptr noundef nonnull align 1 dereferenceable(1) %0) unnamed_addr #2 comdat align 2 {
  %2 = alloca ptr, align 8
  store ptr %0, ptr %2, align 8, !tbaa !27
  ret void
}

; Function Attrs: mustprogress nounwind uwtable
define available_externally void @_ZNSaIcEC2Ev(ptr noundef nonnull align 1 dereferenceable(1) %0) unnamed_addr #2 align 2 {
  %2 = alloca ptr, align 8
  store ptr %0, ptr %2, align 8, !tbaa !4
  %3 = load ptr, ptr %2, align 8
  call void @_ZNSt15__new_allocatorIcEC2Ev(ptr noundef nonnull align 1 dereferenceable(1) %3) #5
  ret void
}

; Function Attrs: mustprogress uwtable
define void @_ZN7rocksdb27BlockCacheEntryStatsMapKeys10EntryCountB5cxx11ENS_14CacheEntryRoleE(ptr dead_on_unwind noalias writable sret(%"class.std::__cxx11::basic_string") align 8 %0, i32 noundef %1) #3 align 2 personality ptr @__gxx_personality_v0 {
  %3 = alloca ptr, align 8
  %4 = alloca i32, align 4
  %5 = alloca %"class.std::allocator", align 1
  %6 = alloca ptr, align 8
  %7 = alloca i32, align 4
  store ptr %0, ptr %3, align 8
  store i32 %1, ptr %4, align 4, !tbaa !15
  %8 = load atomic i8, ptr @_ZGVZN7rocksdb27BlockCacheEntryStatsMapKeys10EntryCountB5cxx11ENS_14CacheEntryRoleEE7kPrefixB5cxx11 acquire, align 8
  %9 = icmp eq i8 %8, 0
  br i1 %9, label %10, label %16, !prof !19

10:                                               ; preds = %2
  %11 = call i32 @__cxa_guard_acquire(ptr @_ZGVZN7rocksdb27BlockCacheEntryStatsMapKeys10EntryCountB5cxx11ENS_14CacheEntryRoleEE7kPrefixB5cxx11) #5
  %12 = icmp ne i32 %11, 0
  br i1 %12, label %13, label %16

13:                                               ; preds = %10
  call void @llvm.lifetime.start.p0(i64 1, ptr %5) #5
  call void @_ZNSaIcEC2Ev(ptr noundef nonnull align 1 dereferenceable(1) %5) #5
  invoke void @_ZNSt7__cxx1112basic_stringIcSt11char_traitsIcESaIcEEC2IS3_EEPKcRKS3_(ptr noundef nonnull align 8 dereferenceable(32) @_ZZN7rocksdb27BlockCacheEntryStatsMapKeys10EntryCountB5cxx11ENS_14CacheEntryRoleEE7kPrefixB5cxx11, ptr noundef @.str.33, ptr noundef nonnull align 1 dereferenceable(1) %5)
          to label %14 unwind label %18

14:                                               ; preds = %13
  call void @_ZNSt15__new_allocatorIcED2Ev(ptr noundef nonnull align 1 dereferenceable(1) %5) #5
  call void @llvm.lifetime.end.p0(i64 1, ptr %5) #5
  %15 = call i32 @__cxa_atexit(ptr @_ZNSt7__cxx1112basic_stringIcSt11char_traitsIcESaIcEED2Ev, ptr @_ZZN7rocksdb27BlockCacheEntryStatsMapKeys10EntryCountB5cxx11ENS_14CacheEntryRoleEE7kPrefixB5cxx11, ptr @__dso_handle) #5
  call void @__cxa_guard_release(ptr @_ZGVZN7rocksdb27BlockCacheEntryStatsMapKeys10EntryCountB5cxx11ENS_14CacheEntryRoleEE7kPrefixB5cxx11) #5
  br label %16

16:                                               ; preds = %14, %10, %2
  %17 = load i32, ptr %4, align 4, !tbaa !15
  call void @_ZN7rocksdb12_GLOBAL__N_129GetPrefixedCacheEntryRoleNameERKNSt7__cxx1112basic_stringIcSt11char_traitsIcESaIcEEENS_14CacheEntryRoleE(ptr dead_on_unwind writable sret(%"class.std::__cxx11::basic_string") align 8 %0, ptr noundef nonnull align 8 dereferenceable(32) @_ZZN7rocksdb27BlockCacheEntryStatsMapKeys10EntryCountB5cxx11ENS_14CacheEntryRoleEE7kPrefixB5cxx11, i32 noundef %17)
  ret void

18:                                               ; preds = %13
  %19 = landingpad { ptr, i32 }
          cleanup
  %20 = extractvalue { ptr, i32 } %19, 0
  store ptr %20, ptr %6, align 8
  %21 = extractvalue { ptr, i32 } %19, 1
  store i32 %21, ptr %7, align 4
  call void @_ZNSt15__new_allocatorIcED2Ev(ptr noundef nonnull align 1 dereferenceable(1) %5) #5
  call void @llvm.lifetime.end.p0(i64 1, ptr %5) #5
  call void @__cxa_guard_abort(ptr @_ZGVZN7rocksdb27BlockCacheEntryStatsMapKeys10EntryCountB5cxx11ENS_14CacheEntryRoleEE7kPrefixB5cxx11) #5
  br label %22

22:                                               ; preds = %18
  %23 = load ptr, ptr %6, align 8
  %24 = load i32, ptr %7, align 4
  %25 = insertvalue { ptr, i32 } poison, ptr %23, 0
  %26 = insertvalue { ptr, i32 } %25, i32 %24, 1
  resume { ptr, i32 } %26
}