; Function Attrs: mustprogress uwtable
define void @_ZN7rocksdb27BlockCacheEntryStatsMapKeys10EntryCountB5cxx11ENS_14CacheEntryRoleE(ptr dead_on_unwind noalias writable sret(%"class.std::__cxx11::basic_string") align 8 %0, i32 noundef %1) local_unnamed_addr #1 align 2 personality ptr @__gxx_personality_v0 {
  %3 = alloca %"class.std::allocator", align 1
  %4 = load atomic i8, ptr @_ZGVZN7rocksdb27BlockCacheEntryStatsMapKeys10EntryCountB5cxx11ENS_14CacheEntryRoleEE7kPrefixB5cxx11 acquire, align 8
  %5 = icmp eq i8 %4, 0
  br i1 %5, label %6, label %11, !prof !16

6:                                                ; preds = %2
  %7 = tail call i32 @__cxa_guard_acquire(ptr nonnull @_ZGVZN7rocksdb27BlockCacheEntryStatsMapKeys10EntryCountB5cxx11ENS_14CacheEntryRoleEE7kPrefixB5cxx11) #14
  %.not = icmp eq i32 %7, 0
  br i1 %.not, label %11, label %8

8:                                                ; preds = %6
  call void @llvm.lifetime.start.p0(i64 1, ptr nonnull %3) #14
  invoke void @_ZNSt7__cxx1112basic_stringIcSt11char_traitsIcESaIcEEC2IS3_EEPKcRKS3_(ptr noundef nonnull align 8 dereferenceable(32) @_ZZN7rocksdb27BlockCacheEntryStatsMapKeys10EntryCountB5cxx11ENS_14CacheEntryRoleEE7kPrefixB5cxx11, ptr noundef nonnull @.str.33, ptr noundef nonnull align 1 dereferenceable(1) %3)
          to label %9 unwind label %12

9:                                                ; preds = %8
  call void @llvm.lifetime.end.p0(i64 1, ptr nonnull %3) #14
  %10 = call i32 @__cxa_atexit(ptr nonnull @_ZNSt7__cxx1112basic_stringIcSt11char_traitsIcESaIcEED2Ev, ptr nonnull @_ZZN7rocksdb27BlockCacheEntryStatsMapKeys10EntryCountB5cxx11ENS_14CacheEntryRoleEE7kPrefixB5cxx11, ptr nonnull @__dso_handle) #14
  call void @__cxa_guard_release(ptr nonnull @_ZGVZN7rocksdb27BlockCacheEntryStatsMapKeys10EntryCountB5cxx11ENS_14CacheEntryRoleEE7kPrefixB5cxx11) #14
  br label %11

11:                                               ; preds = %9, %6, %2
  call fastcc void @_ZN7rocksdb12_GLOBAL__N_129GetPrefixedCacheEntryRoleNameERKNSt7__cxx1112basic_stringIcSt11char_traitsIcESaIcEEENS_14CacheEntryRoleE(ptr dead_on_unwind noalias writable align 8 %0, ptr noundef nonnull align 8 dereferenceable(32) @_ZZN7rocksdb27BlockCacheEntryStatsMapKeys10EntryCountB5cxx11ENS_14CacheEntryRoleEE7kPrefixB5cxx11, i32 noundef %1)
  ret void

12:                                               ; preds = %8
  %13 = landingpad { ptr, i32 }
          cleanup
  call void @llvm.lifetime.end.p0(i64 1, ptr nonnull %3) #14
  call void @__cxa_guard_abort(ptr nonnull @_ZGVZN7rocksdb27BlockCacheEntryStatsMapKeys10EntryCountB5cxx11ENS_14CacheEntryRoleEE7kPrefixB5cxx11) #14
  resume { ptr, i32 } %13
}